target datalayout = "e-m:e-p270:32:32-p271:32:32-p272:64:64-i64:64-i128:128-f80:128-n8:16:32:64-S128"
target triple = "x86_64-pc-linux-gnu"

; Function Attrs: inlinehint mustprogress nounwind uwtable
define linkonce_odr dso_local noundef nonnull align 4 dereferenceable(4) ptr @_Z5b3MinIiERKT_S2_S2_(ptr noundef nonnull align 4 dereferenceable(4) %0, ptr noundef nonnull align 4 dereferenceable(4) %1) #3 comdat {
  %3 = alloca ptr, align 8
  %4 = alloca ptr, align 8
  store ptr %0, ptr %3, align 8, !tbaa !14
  store ptr %1, ptr %4, align 8, !tbaa !14
  %5 = load ptr, ptr %3, align 8, !tbaa !14
  %6 = load i32, ptr %5, align 4, !tbaa !9
  %7 = load ptr, ptr %4, align 8, !tbaa !14
  %8 = load i32, ptr %7, align 4, !tbaa !9
  %9 = icmp slt i32 %6, %8
  br i1 %9, label %10, label %12

10:                                               ; preds = %2
  %11 = load ptr, ptr %3, align 8, !tbaa !14
  br label %14

12:                                               ; preds = %2
  %13 = load ptr, ptr %4, align 8, !tbaa !14
  br label %14

14:                                               ; preds = %12, %10
  %15 = phi ptr [ %11, %10 ], [ %13, %12 ]
  ret ptr %15
}

; Function Attrs: mustprogress uwtable
define dso_local noundef ptr @_Z12getCleanNamePKcPc(ptr noundef %0, ptr noundef %1) #0 {
  %3 = alloca ptr, align 8
  %4 = alloca ptr, align 8
  %5 = alloca i32, align 4
  %6 = alloca i32, align 4
  %7 = alloca i32, align 4
  store ptr %0, ptr %3, align 8, !tbaa !4
  store ptr %1, ptr %4, align 8, !tbaa !4
  call void @llvm.lifetime.start.p0(i64 4, ptr %5) #16
  %8 = load ptr, ptr %3, align 8, !tbaa !4
  %9 = call i64 @strlen(ptr noundef %8) #17
  %10 = trunc i64 %9 to i32
  store i32 %10, ptr %5, align 4, !tbaa !9
  call void @llvm.lifetime.start.p0(i64 4, ptr %6) #16
  store i32 1024, ptr %6, align 4, !tbaa !9
  %11 = call noundef nonnull align 4 dereferenceable(4) ptr @_Z5b3MinIiERKT_S2_S2_(ptr noundef nonnull align 4 dereferenceable(4) %5, ptr noundef nonnull align 4 dereferenceable(4) %6)
  %12 = load i32, ptr %11, align 4, !tbaa !9
  store i32 %12, ptr %5, align 4, !tbaa !9
  call void @llvm.lifetime.end.p0(i64 4, ptr %6) #16
  call void @llvm.lifetime.start.p0(i64 4, ptr %7) #16
  store i32 0, ptr %7, align 4, !tbaa !9
  br label %13

13:                                               ; preds = %50, %2
  %14 = load i32, ptr %7, align 4, !tbaa !9
  %15 = load i32, ptr %5, align 4, !tbaa !9
  %16 = icmp slt i32 %14, %15
  br i1 %16, label %18, label %17

17:                                               ; preds = %13
  call void @llvm.lifetime.end.p0(i64 4, ptr %7) #16
  br label %53

18:                                               ; preds = %13
  %19 = load ptr, ptr %3, align 8, !tbaa !4
  %20 = load i32, ptr %7, align 4, !tbaa !9
  %21 = sext i32 %20 to i64
  %22 = getelementptr inbounds i8, ptr %19, i64 %21
  %23 = load i8, ptr %22, align 1, !tbaa !11
  %24 = sext i8 %23 to i32
  %25 = icmp eq i32 %24, 93
  br i1 %25, label %34, label %26

26:                                               ; preds = %18
  %27 = load ptr, ptr %3, align 8, !tbaa !4
  %28 = load i32, ptr %7, align 4, !tbaa !9
  %29 = sext i32 %28 to i64
  %30 = getelementptr inbounds i8, ptr %27, i64 %29
  %31 = load i8, ptr %30, align 1, !tbaa !11
  %32 = sext i8 %31 to i32
  %33 = icmp eq i32 %32, 91
  br i1 %33, label %34, label %39

34:                                               ; preds = %26, %18
  %35 = load ptr, ptr %4, align 8, !tbaa !4
  %36 = load i32, ptr %7, align 4, !tbaa !9
  %37 = sext i32 %36 to i64
  %38 = getelementptr inbounds i8, ptr %35, i64 %37
  store i8 0, ptr %38, align 1, !tbaa !11
  br label %49

39:                                               ; preds = %26
  %40 = load ptr, ptr %3, align 8, !tbaa !4
  %41 = load i32, ptr %7, align 4, !tbaa !9
  %42 = sext i32 %41 to i64
  %43 = getelementptr inbounds i8, ptr %40, i64 %42
  %44 = load i8, ptr %43, align 1, !tbaa !11
  %45 = load ptr, ptr %4, align 8, !tbaa !4
  %46 = load i32, ptr %7, align 4, !tbaa !9
  %47 = sext i32 %46 to i64
  %48 = getelementptr inbounds i8, ptr %45, i64 %47
  store i8 %44, ptr %48, align 1, !tbaa !11
  br label %49

49:                                               ; preds = %39, %34
  br label %50

50:                                               ; preds = %49
  %51 = load i32, ptr %7, align 4, !tbaa !9
  %52 = add nsw i32 %51, 1
  store i32 %52, ptr %7, align 4, !tbaa !9
  br label %13, !llvm.loop !12

53:                                               ; preds = %17
  %54 = load ptr, ptr %4, align 8, !tbaa !4
  %55 = load i32, ptr %5, align 4, !tbaa !9
  %56 = sext i32 %55 to i64
  %57 = getelementptr inbounds i8, ptr %54, i64 %56
  store i8 0, ptr %57, align 1, !tbaa !11
  %58 = load ptr, ptr %4, align 8, !tbaa !4
  call void @llvm.lifetime.end.p0(i64 4, ptr %5) #16
  ret ptr %58
}