; Function Attrs: mustprogress nofree nounwind memory(argmem: readwrite) uwtable
define dso_local noundef ptr @_Z12getCleanNamePKcPc(ptr noundef readonly captures(none) %0, ptr noundef returned writeonly captures(ret: address, provenance) %1) local_unnamed_addr #0 {
  %3 = tail call i64 @strlen(ptr noundef nonnull dereferenceable(1) %0) #29
  %4 = trunc i64 %3 to i32
  %.sroa.speculated = tail call i32 @llvm.smin.i32(i32 %4, i32 1024)
  %5 = icmp sgt i32 %4, 0
  br i1 %5, label %.lr.ph.preheader, label %._crit_edge

.lr.ph.preheader:                                 ; preds = %2
  %smax = tail call i32 @llvm.smax.i32(i32 %.sroa.speculated, i32 1)
  %wide.trip.count = zext nneg i32 %smax to i64
  br label %.lr.ph

._crit_edge:                                      ; preds = %11, %2
  %6 = sext i32 %.sroa.speculated to i64
  %7 = getelementptr inbounds i8, ptr %1, i64 %6
  store i8 0, ptr %7, align 1, !tbaa !4
  ret ptr %1

.lr.ph:                                           ; preds = %.lr.ph.preheader, %11
  %indvars.iv = phi i64 [ 0, %.lr.ph.preheader ], [ %indvars.iv.next, %11 ]
  %8 = getelementptr inbounds nuw i8, ptr %0, i64 %indvars.iv
  %9 = load i8, ptr %8, align 1, !tbaa !4
  switch i8 %9, label %10 [
    i8 93, label %11
    i8 91, label %11
  ]

10:                                               ; preds = %.lr.ph
  br label %11

11:                                               ; preds = %.lr.ph, %.lr.ph, %10
  %.sink = phi i8 [ %9, %10 ], [ 0, %.lr.ph ], [ 0, %.lr.ph ]
  %12 = getelementptr inbounds nuw i8, ptr %1, i64 %indvars.iv
  store i8 %.sink, ptr %12, align 1, !tbaa !4
  %indvars.iv.next = add nuw nsw i64 %indvars.iv, 1
  %exitcond.not = icmp eq i64 %indvars.iv.next, %wide.trip.count
  br i1 %exitcond.not, label %._crit_edge, label %.lr.ph, !llvm.loop !7
}